target datalayout = "e-m:e-p270:32:32-p271:32:32-p272:64:64-i64:64-i128:128-f80:128-n8:16:32:64-S128"
target triple = "x86_64-pc-linux-gnu"

%struct.avifScalingMode = type { %struct.avifFraction, %struct.avifFraction }
%struct.avifFraction = type { i32, i32 }
%struct.avifEncoder = type { i32, i32, i32, i32, i64, i32, i32, i32, i32, i32, i32, i32, i32, i32, i32, i32, %struct.avifScalingMode, %struct.avifIOStats, %struct.avifDiagnostics, ptr, ptr, i32 }
%struct.avifIOStats = type { i64, i64 }
%struct.avifDiagnostics = type { [256 x i8] }
%struct.avifEncoderData = type { %struct.avifEncoderItemArray, %struct.avifEncoderFrameArray, i32, i32, i32, i32, %struct.avifEncoder, i32, i32, i32, i32, ptr, i16, i16, %struct.avifEncoderItemIdArray, i32, i32, i64, ptr, ptr }
%struct.avifEncoderItemArray = type { ptr, i32, i32, i32 }
%struct.avifEncoderFrameArray = type { ptr, i32, i32, i32 }
%struct.avifEncoderItemIdArray = type { ptr, i32, i32, i32 }

; Function Attrs: nounwind uwtable
define internal void @avifEncoderBackupSettings(ptr noundef %0) #0 {
  %2 = alloca ptr, align 8
  %3 = alloca ptr, align 8
  store ptr %0, ptr %2, align 8
  %4 = load ptr, ptr %2, align 8
  %5 = getelementptr inbounds nuw %struct.avifEncoder, ptr %4, i32 0, i32 19
  %6 = load ptr, ptr %5, align 8
  %7 = getelementptr inbounds nuw %struct.avifEncoderData, ptr %6, i32 0, i32 6
  store ptr %7, ptr %3, align 8
  %8 = load ptr, ptr %2, align 8
  %9 = getelementptr inbounds nuw %struct.avifEncoder, ptr %8, i32 0, i32 19
  %10 = load ptr, ptr %9, align 8
  %11 = load ptr, ptr %3, align 8
  %12 = getelementptr inbounds nuw %struct.avifEncoder, ptr %11, i32 0, i32 19
  store ptr %10, ptr %12, align 8
  %13 = load ptr, ptr %2, align 8
  %14 = getelementptr inbounds nuw %struct.avifEncoder, ptr %13, i32 0, i32 0
  %15 = load i32, ptr %14, align 8
  %16 = load ptr, ptr %3, align 8
  %17 = getelementptr inbounds nuw %struct.avifEncoder, ptr %16, i32 0, i32 0
  store i32 %15, ptr %17, align 8
  %18 = load ptr, ptr %2, align 8
  %19 = getelementptr inbounds nuw %struct.avifEncoder, ptr %18, i32 0, i32 1
  %20 = load i32, ptr %19, align 4
  %21 = load ptr, ptr %3, align 8
  %22 = getelementptr inbounds nuw %struct.avifEncoder, ptr %21, i32 0, i32 1
  store i32 %20, ptr %22, align 4
  %23 = load ptr, ptr %2, align 8
  %24 = getelementptr inbounds nuw %struct.avifEncoder, ptr %23, i32 0, i32 2
  %25 = load i32, ptr %24, align 8
  %26 = load ptr, ptr %3, align 8
  %27 = getelementptr inbounds nuw %struct.avifEncoder, ptr %26, i32 0, i32 2
  store i32 %25, ptr %27, align 8
  %28 = load ptr, ptr %2, align 8
  %29 = getelementptr inbounds nuw %struct.avifEncoder, ptr %28, i32 0, i32 3
  %30 = load i32, ptr %29, align 4
  %31 = load ptr, ptr %3, align 8
  %32 = getelementptr inbounds nuw %struct.avifEncoder, ptr %31, i32 0, i32 3
  store i32 %30, ptr %32, align 4
  %33 = load ptr, ptr %2, align 8
  %34 = getelementptr inbounds nuw %struct.avifEncoder, ptr %33, i32 0, i32 4
  %35 = load i64, ptr %34, align 8
  %36 = load ptr, ptr %3, align 8
  %37 = getelementptr inbounds nuw %struct.avifEncoder, ptr %36, i32 0, i32 4
  store i64 %35, ptr %37, align 8
  %38 = load ptr, ptr %2, align 8
  %39 = getelementptr inbounds nuw %struct.avifEncoder, ptr %38, i32 0, i32 5
  %40 = load i32, ptr %39, align 8
  %41 = load ptr, ptr %3, align 8
  %42 = getelementptr inbounds nuw %struct.avifEncoder, ptr %41, i32 0, i32 5
  store i32 %40, ptr %42, align 8
  %43 = load ptr, ptr %2, align 8
  %44 = getelementptr inbounds nuw %struct.avifEncoder, ptr %43, i32 0, i32 6
  %45 = load i32, ptr %44, align 4
  %46 = load ptr, ptr %3, align 8
  %47 = getelementptr inbounds nuw %struct.avifEncoder, ptr %46, i32 0, i32 6
  store i32 %45, ptr %47, align 4
  %48 = load ptr, ptr %2, align 8
  %49 = getelementptr inbounds nuw %struct.avifEncoder, ptr %48, i32 0, i32 9
  %50 = load i32, ptr %49, align 8
  %51 = load ptr, ptr %3, align 8
  %52 = getelementptr inbounds nuw %struct.avifEncoder, ptr %51, i32 0, i32 9
  store i32 %50, ptr %52, align 8
  %53 = load ptr, ptr %2, align 8
  %54 = getelementptr inbounds nuw %struct.avifEncoder, ptr %53, i32 0, i32 10
  %55 = load i32, ptr %54, align 4
  %56 = load ptr, ptr %3, align 8
  %57 = getelementptr inbounds nuw %struct.avifEncoder, ptr %56, i32 0, i32 10
  store i32 %55, ptr %57, align 4
  %58 = load ptr, ptr %2, align 8
  %59 = getelementptr inbounds nuw %struct.avifEncoder, ptr %58, i32 0, i32 11
  %60 = load i32, ptr %59, align 8
  %61 = load ptr, ptr %3, align 8
  %62 = getelementptr inbounds nuw %struct.avifEncoder, ptr %61, i32 0, i32 11
  store i32 %60, ptr %62, align 8
  %63 = load ptr, ptr %2, align 8
  %64 = getelementptr inbounds nuw %struct.avifEncoder, ptr %63, i32 0, i32 12
  %65 = load i32, ptr %64, align 4
  %66 = load ptr, ptr %3, align 8
  %67 = getelementptr inbounds nuw %struct.avifEncoder, ptr %66, i32 0, i32 12
  store i32 %65, ptr %67, align 4
  %68 = load ptr, ptr %2, align 8
  %69 = getelementptr inbounds nuw %struct.avifEncoder, ptr %68, i32 0, i32 19
  %70 = load ptr, ptr %69, align 8
  %71 = getelementptr inbounds nuw %struct.avifEncoderData, ptr %70, i32 0, i32 2
  %72 = load i32, ptr %71, align 8
  %73 = load ptr, ptr %2, align 8
  %74 = getelementptr inbounds nuw %struct.avifEncoder, ptr %73, i32 0, i32 19
  %75 = load ptr, ptr %74, align 8
  %76 = getelementptr inbounds nuw %struct.avifEncoderData, ptr %75, i32 0, i32 7
  store i32 %72, ptr %76, align 8
  %77 = load ptr, ptr %2, align 8
  %78 = getelementptr inbounds nuw %struct.avifEncoder, ptr %77, i32 0, i32 19
  %79 = load ptr, ptr %78, align 8
  %80 = getelementptr inbounds nuw %struct.avifEncoderData, ptr %79, i32 0, i32 3
  %81 = load i32, ptr %80, align 4
  %82 = load ptr, ptr %2, align 8
  %83 = getelementptr inbounds nuw %struct.avifEncoder, ptr %82, i32 0, i32 19
  %84 = load ptr, ptr %83, align 8
  %85 = getelementptr inbounds nuw %struct.avifEncoderData, ptr %84, i32 0, i32 8
  store i32 %81, ptr %85, align 4
  %86 = load ptr, ptr %2, align 8
  %87 = getelementptr inbounds nuw %struct.avifEncoder, ptr %86, i32 0, i32 19
  %88 = load ptr, ptr %87, align 8
  %89 = getelementptr inbounds nuw %struct.avifEncoderData, ptr %88, i32 0, i32 4
  %90 = load i32, ptr %89, align 8
  %91 = load ptr, ptr %2, align 8
  %92 = getelementptr inbounds nuw %struct.avifEncoder, ptr %91, i32 0, i32 19
  %93 = load ptr, ptr %92, align 8
  %94 = getelementptr inbounds nuw %struct.avifEncoderData, ptr %93, i32 0, i32 9
  store i32 %90, ptr %94, align 8
  %95 = load ptr, ptr %2, align 8
  %96 = getelementptr inbounds nuw %struct.avifEncoder, ptr %95, i32 0, i32 19
  %97 = load ptr, ptr %96, align 8
  %98 = getelementptr inbounds nuw %struct.avifEncoderData, ptr %97, i32 0, i32 5
  %99 = load i32, ptr %98, align 4
  %100 = load ptr, ptr %2, align 8
  %101 = getelementptr inbounds nuw %struct.avifEncoder, ptr %100, i32 0, i32 19
  %102 = load ptr, ptr %101, align 8
  %103 = getelementptr inbounds nuw %struct.avifEncoderData, ptr %102, i32 0, i32 10
  store i32 %99, ptr %103, align 4
  %104 = load ptr, ptr %3, align 8
  %105 = getelementptr inbounds nuw %struct.avifEncoder, ptr %104, i32 0, i32 16
  %106 = load ptr, ptr %2, align 8
  %107 = getelementptr inbounds nuw %struct.avifEncoder, ptr %106, i32 0, i32 16
  call void @llvm.memcpy.p0.p0.i64(ptr align 4 %105, ptr align 4 %107, i64 16, i1 false)
  ret void
}