; Function Attrs: mustprogress nofree norecurse nosync nounwind willreturn memory(readwrite, inaccessiblemem: none) uwtable
define internal fastcc void @avifEncoderBackupSettings(ptr nocapture noundef readonly %0) unnamed_addr #7 {
  %2 = getelementptr inbounds nuw i8, ptr %0, i64 360
  %3 = load ptr, ptr %2, align 8
  %4 = getelementptr inbounds nuw i8, ptr %3, i64 64
  %5 = getelementptr inbounds i8, ptr %3, i64 424
  store ptr %3, ptr %5, align 8
  %6 = load i32, ptr %0, align 8
  store i32 %6, ptr %4, align 8
  %7 = getelementptr inbounds nuw i8, ptr %0, i64 4
  %8 = load i32, ptr %7, align 4
  %9 = getelementptr inbounds i8, ptr %3, i64 68
  store i32 %8, ptr %9, align 4
  %10 = getelementptr inbounds nuw i8, ptr %0, i64 8
  %11 = load i32, ptr %10, align 8
  %12 = getelementptr inbounds i8, ptr %3, i64 72
  store i32 %11, ptr %12, align 8
  %13 = getelementptr inbounds nuw i8, ptr %0, i64 12
  %14 = load i32, ptr %13, align 4
  %15 = getelementptr inbounds i8, ptr %3, i64 76
  store i32 %14, ptr %15, align 4
  %16 = getelementptr inbounds nuw i8, ptr %0, i64 16
  %17 = load i64, ptr %16, align 8
  %18 = getelementptr inbounds i8, ptr %3, i64 80
  store i64 %17, ptr %18, align 8
  %19 = getelementptr inbounds nuw i8, ptr %0, i64 24
  %20 = load i32, ptr %19, align 8
  %21 = getelementptr inbounds i8, ptr %3, i64 88
  store i32 %20, ptr %21, align 8
  %22 = getelementptr inbounds nuw i8, ptr %0, i64 28
  %23 = load i32, ptr %22, align 4
  %24 = getelementptr inbounds i8, ptr %3, i64 92
  store i32 %23, ptr %24, align 4
  %25 = getelementptr inbounds nuw i8, ptr %0, i64 40
  %26 = load i32, ptr %25, align 8
  %27 = getelementptr inbounds i8, ptr %3, i64 104
  store i32 %26, ptr %27, align 8
  %28 = getelementptr inbounds nuw i8, ptr %0, i64 44
  %29 = load i32, ptr %28, align 4
  %30 = getelementptr inbounds i8, ptr %3, i64 108
  store i32 %29, ptr %30, align 4
  %31 = getelementptr inbounds nuw i8, ptr %0, i64 48
  %32 = load i32, ptr %31, align 8
  %33 = getelementptr inbounds i8, ptr %3, i64 112
  store i32 %32, ptr %33, align 8
  %34 = getelementptr inbounds nuw i8, ptr %0, i64 52
  %35 = load i32, ptr %34, align 4
  %36 = getelementptr inbounds i8, ptr %3, i64 116
  store i32 %35, ptr %36, align 4
  %37 = load ptr, ptr %2, align 8
  %38 = getelementptr inbounds nuw i8, ptr %37, i64 48
  %39 = load i32, ptr %38, align 8
  %40 = getelementptr inbounds nuw i8, ptr %37, i64 448
  store i32 %39, ptr %40, align 8
  %41 = load ptr, ptr %2, align 8
  %42 = getelementptr inbounds nuw i8, ptr %41, i64 52
  %43 = load i32, ptr %42, align 4
  %44 = getelementptr inbounds nuw i8, ptr %41, i64 452
  store i32 %43, ptr %44, align 4
  %45 = load ptr, ptr %2, align 8
  %46 = getelementptr inbounds nuw i8, ptr %45, i64 56
  %47 = load i32, ptr %46, align 8
  %48 = getelementptr inbounds nuw i8, ptr %45, i64 456
  store i32 %47, ptr %48, align 8
  %49 = load ptr, ptr %2, align 8
  %50 = getelementptr inbounds nuw i8, ptr %49, i64 60
  %51 = load i32, ptr %50, align 4
  %52 = getelementptr inbounds nuw i8, ptr %49, i64 460
  store i32 %51, ptr %52, align 4
  %53 = getelementptr inbounds i8, ptr %3, i64 132
  %54 = getelementptr inbounds nuw i8, ptr %0, i64 68
  tail call void @llvm.memcpy.p0.p0.i64(ptr noundef nonnull align 4 dereferenceable(16) %53, ptr noundef nonnull align 4 dereferenceable(16) %54, i64 16, i1 false)
  ret void
}